target datalayout = "e-m:e-p270:32:32-p271:32:32-p272:64:64-i64:64-i128:128-f80:128-n8:16:32:64-S128"
target triple = "x86_64-pc-linux-gnu"

%struct._object = type { %union.anon, ptr }
%union.anon = type { i64 }
%struct.tagCDataObject = type { %struct._object, ptr, i32, ptr, i64, i64, i64, ptr, %union.value }
%union.value = type { x86_fp80 }
%struct.Py_buffer = type { ptr, ptr, i64, i64, i32, i32, ptr, ptr, ptr, ptr, ptr }

@PyExc_ValueError = external global ptr, align 8
@PyExc_AttributeError = external global ptr, align 8
@.str.119 = private unnamed_addr constant [24 x i8] c"cannot delete attribute\00", align 1
@.str.120 = private unnamed_addr constant [21 x i8] c"byte string too long\00", align 1

; Function Attrs: inlinehint nounwind uwtable
define internal void @UNLOCK_PTR(ptr noundef %0) #2 {
  %2 = alloca ptr, align 8
  store ptr %0, ptr %2, align 8, !tbaa !39
  ret void
}

; Function Attrs: inlinehint nounwind uwtable
define internal void @LOCK_PTR(ptr noundef %0) #2 {
  %2 = alloca ptr, align 8
  store ptr %0, ptr %2, align 8, !tbaa !39
  ret void
}

; Function Attrs: inlinehint nounwind uwtable
define internal void @locked_memcpy_to(ptr noundef %0, ptr noundef %1, i64 noundef %2) #2 {
  %4 = alloca ptr, align 8
  %5 = alloca ptr, align 8
  %6 = alloca i64, align 8
  store ptr %0, ptr %4, align 8, !tbaa !39
  store ptr %1, ptr %5, align 8, !tbaa !3
  store i64 %2, ptr %6, align 8, !tbaa !23
  %7 = load ptr, ptr %4, align 8, !tbaa !39
  call void @LOCK_PTR(ptr noundef %7)
  %8 = load ptr, ptr %4, align 8, !tbaa !39
  %9 = getelementptr inbounds nuw %struct.tagCDataObject, ptr %8, i32 0, i32 1
  %10 = load ptr, ptr %9, align 16, !tbaa !46
  %11 = load ptr, ptr %5, align 8, !tbaa !3
  %12 = load i64, ptr %6, align 8, !tbaa !23
  call void @llvm.memcpy.p0.p0.i64(ptr align 1 %10, ptr align 1 %11, i64 %12, i1 false)
  %13 = load ptr, ptr %4, align 8, !tbaa !39
  call void @UNLOCK_PTR(ptr noundef %13)
  ret void
}

; Function Attrs: nounwind uwtable
define internal i32 @CharArray_set_raw(ptr noundef %0, ptr noundef %1, ptr noundef %2) #0 {
  %4 = alloca i32, align 4
  %5 = alloca ptr, align 8
  %6 = alloca ptr, align 8
  %7 = alloca ptr, align 8
  %8 = alloca ptr, align 8
  %9 = alloca i64, align 8
  %10 = alloca %struct.Py_buffer, align 8
  %11 = alloca ptr, align 8
  %12 = alloca i32, align 4
  store ptr %0, ptr %5, align 8, !tbaa !7
  store ptr %1, ptr %6, align 8, !tbaa !7
  store ptr %2, ptr %7, align 8, !tbaa !3
  call void @llvm.lifetime.start.p0(i64 8, ptr %8) #9
  call void @llvm.lifetime.start.p0(i64 8, ptr %9) #9
  call void @llvm.lifetime.start.p0(i64 80, ptr %10) #9
  call void @llvm.lifetime.start.p0(i64 8, ptr %11) #9
  %13 = load ptr, ptr %5, align 8, !tbaa !7
  store ptr %13, ptr %11, align 8, !tbaa !39
  %14 = load ptr, ptr %6, align 8, !tbaa !7
  %15 = icmp eq ptr %14, null
  br i1 %15, label %16, label %18

16:                                               ; preds = %3
  %17 = load ptr, ptr @PyExc_AttributeError, align 8, !tbaa !7
  call void @PyErr_SetString(ptr noundef %17, ptr noundef @.str.119)
  store i32 -1, ptr %4, align 4
  store i32 1, ptr %12, align 4
  br label %40

18:                                               ; preds = %3
  %19 = load ptr, ptr %6, align 8, !tbaa !7
  %20 = call i32 @PyObject_GetBuffer(ptr noundef %19, ptr noundef %10, i32 noundef 0)
  %21 = icmp slt i32 %20, 0
  br i1 %21, label %22, label %23

22:                                               ; preds = %18
  store i32 -1, ptr %4, align 4
  store i32 1, ptr %12, align 4
  br label %40

23:                                               ; preds = %18
  %24 = getelementptr inbounds nuw %struct.Py_buffer, ptr %10, i32 0, i32 2
  %25 = load i64, ptr %24, align 8, !tbaa !125
  store i64 %25, ptr %9, align 8, !tbaa !23
  %26 = getelementptr inbounds nuw %struct.Py_buffer, ptr %10, i32 0, i32 0
  %27 = load ptr, ptr %26, align 8, !tbaa !122
  store ptr %27, ptr %8, align 8, !tbaa !25
  %28 = load i64, ptr %9, align 8, !tbaa !23
  %29 = load ptr, ptr %11, align 8, !tbaa !39
  %30 = getelementptr inbounds nuw %struct.tagCDataObject, ptr %29, i32 0, i32 4
  %31 = load i64, ptr %30, align 8, !tbaa !45
  %32 = icmp sgt i64 %28, %31
  br i1 %32, label %33, label %35

33:                                               ; preds = %23
  %34 = load ptr, ptr @PyExc_ValueError, align 8, !tbaa !7
  call void @PyErr_SetString(ptr noundef %34, ptr noundef @.str.120)
  br label %39

35:                                               ; preds = %23
  %36 = load ptr, ptr %11, align 8, !tbaa !39
  %37 = load ptr, ptr %8, align 8, !tbaa !25
  %38 = load i64, ptr %9, align 8, !tbaa !23
  call void @locked_memcpy_to(ptr noundef %36, ptr noundef %37, i64 noundef %38)
  call void @PyBuffer_Release(ptr noundef %10)
  store i32 0, ptr %4, align 4
  store i32 1, ptr %12, align 4
  br label %40

39:                                               ; preds = %33
  call void @PyBuffer_Release(ptr noundef %10)
  store i32 -1, ptr %4, align 4
  store i32 1, ptr %12, align 4
  br label %40

40:                                               ; preds = %39, %35, %22, %16
  call void @llvm.lifetime.end.p0(i64 8, ptr %11) #9
  call void @llvm.lifetime.end.p0(i64 80, ptr %10) #9
  call void @llvm.lifetime.end.p0(i64 8, ptr %9) #9
  call void @llvm.lifetime.end.p0(i64 8, ptr %8) #9
  %41 = load i32, ptr %4, align 4
  ret i32 %41
}