; Function Attrs: nounwind uwtable
define internal range(i32 -1, 1) i32 @CharArray_set_raw(ptr noundef readonly captures(none) %0, ptr noundef %1, ptr readnone captures(none) %2) #0 {
  %4 = alloca %struct.Py_buffer, align 8
  call void @llvm.lifetime.start.p0(i64 80, ptr nonnull %4) #17
  %5 = icmp eq ptr %1, null
  br i1 %5, label %6, label %8

6:                                                ; preds = %3
  %7 = load ptr, ptr @PyExc_AttributeError, align 8, !tbaa !27
  tail call void @PyErr_SetString(ptr noundef %7, ptr noundef nonnull @.str.119) #17
  br label %22

8:                                                ; preds = %3
  %9 = call i32 @PyObject_GetBuffer(ptr noundef nonnull %1, ptr noundef nonnull %4, i32 noundef 0) #17
  %10 = icmp slt i32 %9, 0
  br i1 %10, label %22, label %11

11:                                               ; preds = %8
  %12 = getelementptr inbounds nuw i8, ptr %4, i64 16
  %13 = load i64, ptr %12, align 8, !tbaa !112
  %14 = getelementptr inbounds nuw i8, ptr %0, i64 40
  %15 = load i64, ptr %14, align 8, !tbaa !41
  %16 = icmp sgt i64 %13, %15
  br i1 %16, label %17, label %19

17:                                               ; preds = %11
  %18 = load ptr, ptr @PyExc_ValueError, align 8, !tbaa !27
  call void @PyErr_SetString(ptr noundef %18, ptr noundef nonnull @.str.120) #17
  call void @PyBuffer_Release(ptr noundef nonnull %4) #17
  br label %22

19:                                               ; preds = %11
  %20 = load ptr, ptr %4, align 8, !tbaa !109
  %21 = getelementptr i8, ptr %0, i64 16
  %.val = load ptr, ptr %21, align 16, !tbaa !42
  call void @llvm.memcpy.p0.p0.i64(ptr align 1 %.val, ptr readonly align 1 %20, i64 %13, i1 false)
  call void @PyBuffer_Release(ptr noundef nonnull %4) #17
  br label %22

22:                                               ; preds = %8, %17, %19, %6
  %.0 = phi i32 [ -1, %6 ], [ -1, %17 ], [ 0, %19 ], [ -1, %8 ]
  call void @llvm.lifetime.end.p0(i64 80, ptr nonnull %4) #17
  ret i32 %.0
}